target datalayout = "e-m:e-p270:32:32-p271:32:32-p272:64:64-i64:64-i128:128-f80:128-n8:16:32:64-S128"
target triple = "x86_64-pc-linux-gnu"

%struct.LodePNGColorMode = type { i32, i32, ptr, i64, i32, i32, i32, i32 }

; Function Attrs: mustprogress nounwind uwtable
define void @_Z23lodepng_color_mode_initP16LodePNGColorMode(ptr noundef %0) #3 {
  %2 = alloca ptr, align 8
  store ptr %0, ptr %2, align 8, !tbaa !100
  %3 = load ptr, ptr %2, align 8, !tbaa !100
  %4 = getelementptr inbounds nuw %struct.LodePNGColorMode, ptr %3, i32 0, i32 4
  store i32 0, ptr %4, align 8, !tbaa !102
  %5 = load ptr, ptr %2, align 8, !tbaa !100
  %6 = getelementptr inbounds nuw %struct.LodePNGColorMode, ptr %5, i32 0, i32 7
  store i32 0, ptr %6, align 4, !tbaa !105
  %7 = load ptr, ptr %2, align 8, !tbaa !100
  %8 = getelementptr inbounds nuw %struct.LodePNGColorMode, ptr %7, i32 0, i32 6
  store i32 0, ptr %8, align 8, !tbaa !106
  %9 = load ptr, ptr %2, align 8, !tbaa !100
  %10 = getelementptr inbounds nuw %struct.LodePNGColorMode, ptr %9, i32 0, i32 5
  store i32 0, ptr %10, align 4, !tbaa !107
  %11 = load ptr, ptr %2, align 8, !tbaa !100
  %12 = getelementptr inbounds nuw %struct.LodePNGColorMode, ptr %11, i32 0, i32 0
  store i32 6, ptr %12, align 8, !tbaa !108
  %13 = load ptr, ptr %2, align 8, !tbaa !100
  %14 = getelementptr inbounds nuw %struct.LodePNGColorMode, ptr %13, i32 0, i32 1
  store i32 8, ptr %14, align 4, !tbaa !109
  %15 = load ptr, ptr %2, align 8, !tbaa !100
  %16 = getelementptr inbounds nuw %struct.LodePNGColorMode, ptr %15, i32 0, i32 2
  store ptr null, ptr %16, align 8, !tbaa !110
  %17 = load ptr, ptr %2, align 8, !tbaa !100
  %18 = getelementptr inbounds nuw %struct.LodePNGColorMode, ptr %17, i32 0, i32 3
  store i64 0, ptr %18, align 8, !tbaa !111
  ret void
}